target datalayout = "e-m:e-p270:32:32-p271:32:32-p272:64:64-i64:64-i128:128-f80:128-n8:16:32:64-S128"
target triple = "x86_64-pc-linux-gnu"

%struct.TypeCacheEntry = type { i32, i32, i16, i8, i8, i8, i8, i32, i32, i32, i32, i32, i32, i32, i32, i32, i32, i32, i32, i32, i32, %struct.FmgrInfo, %struct.FmgrInfo, %struct.FmgrInfo, %struct.FmgrInfo, ptr, i64, ptr, i32, i32, %struct.FmgrInfo, %struct.FmgrInfo, %struct.FmgrInfo, ptr, i32, i32, ptr, i32, ptr, ptr }
%struct.FmgrInfo = type { ptr, i32, i16, i8, i8, i8, ptr, ptr, ptr }
%struct.DomainConstraintCache = type { ptr, ptr, i64 }
%struct.DomainConstraintState = type { i32, i32, ptr, ptr, ptr }
%struct.DomainConstraintRef = type { ptr, ptr, ptr, i8, ptr, %struct.MemoryContextCallback }
%struct.MemoryContextCallback = type { ptr, ptr, ptr }
%struct.ForEachState = type { ptr, i32 }
%struct.List = type { i32, i32, i32, ptr, [0 x %union.ListCell] }
%union.ListCell = type { ptr }
%struct.Node = type { i32 }

@CurrentMemoryContext = external global ptr, align 8

; Function Attrs: inlinehint nounwind uwtable
define internal ptr @newNode(i64 noundef %0, i32 noundef %1) #3 {
  %3 = alloca i64, align 8
  %4 = alloca i32, align 4
  %5 = alloca ptr, align 8
  store i64 %0, ptr %3, align 8
  store i32 %1, ptr %4, align 4
  call void @llvm.lifetime.start.p0(i64 8, ptr %5) #11
  %6 = load i64, ptr %3, align 8
  %7 = call ptr @palloc0(i64 noundef %6)
  store ptr %7, ptr %5, align 8
  %8 = load i32, ptr %4, align 4
  %9 = load ptr, ptr %5, align 8
  %10 = getelementptr inbounds nuw %struct.Node, ptr %9, i32 0, i32 0
  store i32 %8, ptr %10, align 4
  %11 = load ptr, ptr %5, align 8
  call void @llvm.lifetime.end.p0(i64 8, ptr %5) #11
  ret ptr %11
}

; Function Attrs: inlinehint nounwind uwtable
define internal ptr @MemoryContextSwitchTo(ptr noundef %0) #3 {
  %2 = alloca ptr, align 8
  %3 = alloca ptr, align 8
  store ptr %0, ptr %2, align 8
  call void @llvm.lifetime.start.p0(i64 8, ptr %3) #11
  %4 = load ptr, ptr @CurrentMemoryContext, align 8
  store ptr %4, ptr %3, align 8
  %5 = load ptr, ptr %2, align 8
  store ptr %5, ptr @CurrentMemoryContext, align 8
  %6 = load ptr, ptr %3, align 8
  call void @llvm.lifetime.end.p0(i64 8, ptr %3) #11
  ret ptr %6
}

; Function Attrs: nounwind uwtable
define internal ptr @prep_domain_constraints(ptr noundef %0, ptr noundef %1) #0 {
  %3 = alloca ptr, align 8
  %4 = alloca ptr, align 8
  %5 = alloca ptr, align 8
  %6 = alloca ptr, align 8
  %7 = alloca ptr, align 8
  %8 = alloca %struct.ForEachState, align 8
  %9 = alloca ptr, align 8
  %10 = alloca ptr, align 8
  store ptr %0, ptr %3, align 8
  store ptr %1, ptr %4, align 8
  call void @llvm.lifetime.start.p0(i64 8, ptr %5) #11
  store ptr null, ptr %5, align 8
  call void @llvm.lifetime.start.p0(i64 8, ptr %6) #11
  call void @llvm.lifetime.start.p0(i64 8, ptr %7) #11
  %11 = load ptr, ptr %4, align 8
  %12 = call ptr @MemoryContextSwitchTo(ptr noundef %11)
  store ptr %12, ptr %6, align 8
  call void @llvm.lifetime.start.p0(i64 16, ptr %8) #11
  %13 = getelementptr inbounds nuw %struct.ForEachState, ptr %8, i32 0, i32 0
  %14 = load ptr, ptr %3, align 8
  store ptr %14, ptr %13, align 8
  %15 = getelementptr inbounds nuw %struct.ForEachState, ptr %8, i32 0, i32 1
  store i32 0, ptr %15, align 8
  %16 = getelementptr i8, ptr %8, i64 12
  call void @llvm.memset.p0.i64(ptr align 4 %16, i8 0, i64 4, i1 false)
  br label %17

17:                                               ; preds = %71, %2
  %18 = getelementptr inbounds nuw %struct.ForEachState, ptr %8, i32 0, i32 0
  %19 = load ptr, ptr %18, align 8
  %20 = icmp ne ptr %19, null
  br i1 %20, label %21, label %38

21:                                               ; preds = %17
  %22 = getelementptr inbounds nuw %struct.ForEachState, ptr %8, i32 0, i32 1
  %23 = load i32, ptr %22, align 8
  %24 = getelementptr inbounds nuw %struct.ForEachState, ptr %8, i32 0, i32 0
  %25 = load ptr, ptr %24, align 8
  %26 = getelementptr inbounds nuw %struct.List, ptr %25, i32 0, i32 1
  %27 = load i32, ptr %26, align 4
  %28 = icmp slt i32 %23, %27
  br i1 %28, label %29, label %38

29:                                               ; preds = %21
  %30 = getelementptr inbounds nuw %struct.ForEachState, ptr %8, i32 0, i32 0
  %31 = load ptr, ptr %30, align 8
  %32 = getelementptr inbounds nuw %struct.List, ptr %31, i32 0, i32 3
  %33 = load ptr, ptr %32, align 8
  %34 = getelementptr inbounds nuw %struct.ForEachState, ptr %8, i32 0, i32 1
  %35 = load i32, ptr %34, align 8
  %36 = sext i32 %35 to i64
  %37 = getelementptr inbounds %union.ListCell, ptr %33, i64 %36
  store ptr %37, ptr %7, align 8
  br label %39

38:                                               ; preds = %21, %17
  store ptr null, ptr %7, align 8
  br label %39

39:                                               ; preds = %38, %29
  %40 = phi i32 [ 1, %29 ], [ 0, %38 ]
  %41 = icmp ne i32 %40, 0
  br i1 %41, label %43, label %42

42:                                               ; preds = %39
  call void @llvm.lifetime.end.p0(i64 16, ptr %8) #11
  br label %75

43:                                               ; preds = %39
  call void @llvm.lifetime.start.p0(i64 8, ptr %9) #11
  %44 = load ptr, ptr %7, align 8
  %45 = load ptr, ptr %44, align 8
  store ptr %45, ptr %9, align 8
  call void @llvm.lifetime.start.p0(i64 8, ptr %10) #11
  %46 = call ptr @newNode(i64 noundef 32, i32 noundef 392)
  store ptr %46, ptr %10, align 8
  %47 = load ptr, ptr %9, align 8
  %48 = getelementptr inbounds nuw %struct.DomainConstraintState, ptr %47, i32 0, i32 1
  %49 = load i32, ptr %48, align 4
  %50 = load ptr, ptr %10, align 8
  %51 = getelementptr inbounds nuw %struct.DomainConstraintState, ptr %50, i32 0, i32 1
  store i32 %49, ptr %51, align 4
  %52 = load ptr, ptr %9, align 8
  %53 = getelementptr inbounds nuw %struct.DomainConstraintState, ptr %52, i32 0, i32 2
  %54 = load ptr, ptr %53, align 8
  %55 = load ptr, ptr %10, align 8
  %56 = getelementptr inbounds nuw %struct.DomainConstraintState, ptr %55, i32 0, i32 2
  store ptr %54, ptr %56, align 8
  %57 = load ptr, ptr %9, align 8
  %58 = getelementptr inbounds nuw %struct.DomainConstraintState, ptr %57, i32 0, i32 3
  %59 = load ptr, ptr %58, align 8
  %60 = load ptr, ptr %10, align 8
  %61 = getelementptr inbounds nuw %struct.DomainConstraintState, ptr %60, i32 0, i32 3
  store ptr %59, ptr %61, align 8
  %62 = load ptr, ptr %9, align 8
  %63 = getelementptr inbounds nuw %struct.DomainConstraintState, ptr %62, i32 0, i32 3
  %64 = load ptr, ptr %63, align 8
  %65 = call ptr @ExecInitExpr(ptr noundef %64, ptr noundef null)
  %66 = load ptr, ptr %10, align 8
  %67 = getelementptr inbounds nuw %struct.DomainConstraintState, ptr %66, i32 0, i32 4
  store ptr %65, ptr %67, align 8
  %68 = load ptr, ptr %5, align 8
  %69 = load ptr, ptr %10, align 8
  %70 = call ptr @lappend(ptr noundef %68, ptr noundef %69)
  store ptr %70, ptr %5, align 8
  call void @llvm.lifetime.end.p0(i64 8, ptr %10) #11
  call void @llvm.lifetime.end.p0(i64 8, ptr %9) #11
  br label %71

71:                                               ; preds = %43
  %72 = getelementptr inbounds nuw %struct.ForEachState, ptr %8, i32 0, i32 1
  %73 = load i32, ptr %72, align 8
  %74 = add i32 %73, 1
  store i32 %74, ptr %72, align 8
  br label %17, !llvm.loop !15

75:                                               ; preds = %42
  %76 = load ptr, ptr %6, align 8
  %77 = call ptr @MemoryContextSwitchTo(ptr noundef %76)
  %78 = load ptr, ptr %5, align 8
  call void @llvm.lifetime.end.p0(i64 8, ptr %7) #11
  call void @llvm.lifetime.end.p0(i64 8, ptr %6) #11
  call void @llvm.lifetime.end.p0(i64 8, ptr %5) #11
  ret ptr %78
}

; Function Attrs: nounwind uwtable
define internal void @decr_dcc_refcount(ptr noundef %0) #0 {
  %2 = alloca ptr, align 8
  store ptr %0, ptr %2, align 8
  %3 = load ptr, ptr %2, align 8
  %4 = getelementptr inbounds nuw %struct.DomainConstraintCache, ptr %3, i32 0, i32 2
  %5 = load i64, ptr %4, align 8
  %6 = add i64 %5, -1
  store i64 %6, ptr %4, align 8
  %7 = icmp sle i64 %6, 0
  br i1 %7, label %8, label %12

8:                                                ; preds = %1
  %9 = load ptr, ptr %2, align 8
  %10 = getelementptr inbounds nuw %struct.DomainConstraintCache, ptr %9, i32 0, i32 1
  %11 = load ptr, ptr %10, align 8
  call void @MemoryContextDelete(ptr noundef %11)
  br label %12

12:                                               ; preds = %8, %1
  ret void
}

; Function Attrs: nounwind uwtable
define dso_local void @UpdateDomainConstraintRef(ptr noundef %0) #0 {
  %2 = alloca ptr, align 8
  %3 = alloca ptr, align 8
  %4 = alloca ptr, align 8
  store ptr %0, ptr %2, align 8
  call void @llvm.lifetime.start.p0(i64 8, ptr %3) #11
  %5 = load ptr, ptr %2, align 8
  %6 = getelementptr inbounds nuw %struct.DomainConstraintRef, ptr %5, i32 0, i32 2
  %7 = load ptr, ptr %6, align 8
  store ptr %7, ptr %3, align 8
  %8 = load ptr, ptr %3, align 8
  %9 = getelementptr inbounds nuw %struct.TypeCacheEntry, ptr %8, i32 0, i32 37
  %10 = load i32, ptr %9, align 8
  %11 = and i32 %10, 524288
  %12 = icmp eq i32 %11, 0
  br i1 %12, label %13, label %21

13:                                               ; preds = %1
  %14 = load ptr, ptr %3, align 8
  %15 = getelementptr inbounds nuw %struct.TypeCacheEntry, ptr %14, i32 0, i32 6
  %16 = load i8, ptr %15, align 1
  %17 = sext i8 %16 to i32
  %18 = icmp eq i32 %17, 100
  br i1 %18, label %19, label %21

19:                                               ; preds = %13
  %20 = load ptr, ptr %3, align 8
  call void @load_domaintype_info(ptr noundef %20)
  br label %21

21:                                               ; preds = %19, %13, %1
  %22 = load ptr, ptr %2, align 8
  %23 = getelementptr inbounds nuw %struct.DomainConstraintRef, ptr %22, i32 0, i32 4
  %24 = load ptr, ptr %23, align 8
  %25 = load ptr, ptr %3, align 8
  %26 = getelementptr inbounds nuw %struct.TypeCacheEntry, ptr %25, i32 0, i32 36
  %27 = load ptr, ptr %26, align 8
  %28 = icmp ne ptr %24, %27
  br i1 %28, label %29, label %77

29:                                               ; preds = %21
  call void @llvm.lifetime.start.p0(i64 8, ptr %4) #11
  %30 = load ptr, ptr %2, align 8
  %31 = getelementptr inbounds nuw %struct.DomainConstraintRef, ptr %30, i32 0, i32 4
  %32 = load ptr, ptr %31, align 8
  store ptr %32, ptr %4, align 8
  %33 = load ptr, ptr %4, align 8
  %34 = icmp ne ptr %33, null
  br i1 %34, label %35, label %41

35:                                               ; preds = %29
  %36 = load ptr, ptr %2, align 8
  %37 = getelementptr inbounds nuw %struct.DomainConstraintRef, ptr %36, i32 0, i32 0
  store ptr null, ptr %37, align 8
  %38 = load ptr, ptr %2, align 8
  %39 = getelementptr inbounds nuw %struct.DomainConstraintRef, ptr %38, i32 0, i32 4
  store ptr null, ptr %39, align 8
  %40 = load ptr, ptr %4, align 8
  call void @decr_dcc_refcount(ptr noundef %40)
  br label %41

41:                                               ; preds = %35, %29
  %42 = load ptr, ptr %3, align 8
  %43 = getelementptr inbounds nuw %struct.TypeCacheEntry, ptr %42, i32 0, i32 36
  %44 = load ptr, ptr %43, align 8
  store ptr %44, ptr %4, align 8
  %45 = load ptr, ptr %4, align 8
  %46 = icmp ne ptr %45, null
  br i1 %46, label %47, label %76

47:                                               ; preds = %41
  %48 = load ptr, ptr %4, align 8
  %49 = load ptr, ptr %2, align 8
  %50 = getelementptr inbounds nuw %struct.DomainConstraintRef, ptr %49, i32 0, i32 4
  store ptr %48, ptr %50, align 8
  %51 = load ptr, ptr %4, align 8
  %52 = getelementptr inbounds nuw %struct.DomainConstraintCache, ptr %51, i32 0, i32 2
  %53 = load i64, ptr %52, align 8
  %54 = add i64 %53, 1
  store i64 %54, ptr %52, align 8
  %55 = load ptr, ptr %2, align 8
  %56 = getelementptr inbounds nuw %struct.DomainConstraintRef, ptr %55, i32 0, i32 3
  %57 = load i8, ptr %56, align 8, !range !4, !noundef !5
  %58 = trunc i8 %57 to i1
  br i1 %58, label %59, label %69

59:                                               ; preds = %47
  %60 = load ptr, ptr %4, align 8
  %61 = getelementptr inbounds nuw %struct.DomainConstraintCache, ptr %60, i32 0, i32 0
  %62 = load ptr, ptr %61, align 8
  %63 = load ptr, ptr %2, align 8
  %64 = getelementptr inbounds nuw %struct.DomainConstraintRef, ptr %63, i32 0, i32 1
  %65 = load ptr, ptr %64, align 8
  %66 = call ptr @prep_domain_constraints(ptr noundef %62, ptr noundef %65)
  %67 = load ptr, ptr %2, align 8
  %68 = getelementptr inbounds nuw %struct.DomainConstraintRef, ptr %67, i32 0, i32 0
  store ptr %66, ptr %68, align 8
  br label %75

69:                                               ; preds = %47
  %70 = load ptr, ptr %4, align 8
  %71 = getelementptr inbounds nuw %struct.DomainConstraintCache, ptr %70, i32 0, i32 0
  %72 = load ptr, ptr %71, align 8
  %73 = load ptr, ptr %2, align 8
  %74 = getelementptr inbounds nuw %struct.DomainConstraintRef, ptr %73, i32 0, i32 0
  store ptr %72, ptr %74, align 8
  br label %75

75:                                               ; preds = %69, %59
  br label %76

76:                                               ; preds = %75, %41
  call void @llvm.lifetime.end.p0(i64 8, ptr %4) #11
  br label %77

77:                                               ; preds = %76, %21
  call void @llvm.lifetime.end.p0(i64 8, ptr %3) #11
  ret void
}