; Function Attrs: nounwind uwtable
define dso_local void @UpdateDomainConstraintRef(ptr noundef captures(none) %0) local_unnamed_addr #0 {
  %2 = getelementptr inbounds nuw i8, ptr %0, i64 16
  %3 = load ptr, ptr %2, align 8
  %4 = getelementptr inbounds nuw i8, ptr %3, i64 464
  %5 = load i32, ptr %4, align 8
  %6 = and i32 %5, 524288
  %7 = icmp eq i32 %6, 0
  br i1 %7, label %8, label %13

8:                                                ; preds = %1
  %9 = getelementptr inbounds nuw i8, ptr %3, i64 13
  %10 = load i8, ptr %9, align 1
  %11 = icmp eq i8 %10, 100
  br i1 %11, label %12, label %13

12:                                               ; preds = %8
  tail call fastcc void @load_domaintype_info(ptr noundef nonnull %3)
  br label %13

13:                                               ; preds = %12, %8, %1
  %14 = getelementptr inbounds nuw i8, ptr %0, i64 32
  %15 = load ptr, ptr %14, align 8
  %16 = getelementptr inbounds nuw i8, ptr %3, i64 456
  %17 = load ptr, ptr %16, align 8
  %.not = icmp eq ptr %15, %17
  br i1 %.not, label %63, label %18

18:                                               ; preds = %13
  %.not23 = icmp eq ptr %15, null
  br i1 %.not23, label %decr_dcc_refcount.exit, label %19

19:                                               ; preds = %18
  store ptr null, ptr %0, align 8
  store ptr null, ptr %14, align 8
  %20 = getelementptr inbounds nuw i8, ptr %15, i64 16
  %21 = load i64, ptr %20, align 8
  %22 = add i64 %21, -1
  store i64 %22, ptr %20, align 8
  %23 = icmp slt i64 %22, 1
  br i1 %23, label %24, label %decr_dcc_refcount.exitthread-pre-split

24:                                               ; preds = %19
  %25 = getelementptr inbounds nuw i8, ptr %15, i64 8
  %26 = load ptr, ptr %25, align 8
  tail call void @MemoryContextDelete(ptr noundef %26) #16
  br label %decr_dcc_refcount.exitthread-pre-split

decr_dcc_refcount.exitthread-pre-split:           ; preds = %19, %24
  %.pr = load ptr, ptr %16, align 8
  br label %decr_dcc_refcount.exit

decr_dcc_refcount.exit:                           ; preds = %decr_dcc_refcount.exitthread-pre-split, %18
  %27 = phi ptr [ %.pr, %decr_dcc_refcount.exitthread-pre-split ], [ %17, %18 ]
  %.not24 = icmp eq ptr %27, null
  br i1 %.not24, label %63, label %28

28:                                               ; preds = %decr_dcc_refcount.exit
  store ptr %27, ptr %14, align 8
  %29 = getelementptr inbounds nuw i8, ptr %27, i64 16
  %30 = load i64, ptr %29, align 8
  %31 = add i64 %30, 1
  store i64 %31, ptr %29, align 8
  %32 = getelementptr inbounds nuw i8, ptr %0, i64 24
  %33 = load i8, ptr %32, align 8, !range !4, !noundef !5
  %34 = trunc nuw i8 %33 to i1
  %35 = load ptr, ptr %27, align 8
  br i1 %34, label %36, label %.sink.split

36:                                               ; preds = %28
  %37 = getelementptr inbounds nuw i8, ptr %0, i64 8
  %38 = load ptr, ptr %37, align 8
  %39 = load ptr, ptr @CurrentMemoryContext, align 8
  store ptr %38, ptr @CurrentMemoryContext, align 8
  %40 = getelementptr inbounds nuw i8, ptr %35, i64 4
  %.not.i = icmp eq ptr %35, null
  br i1 %.not.i, label %prep_domain_constraints.exit, label %.lr.ph.i

.lr.ph.i:                                         ; preds = %36
  %41 = getelementptr inbounds nuw i8, ptr %35, i64 16
  %42 = load i32, ptr %40, align 4
  %43 = icmp sgt i32 %42, 0
  br i1 %43, label %.lr.ph31.i, label %prep_domain_constraints.exit

.lr.ph31.i:                                       ; preds = %.lr.ph.i, %.lr.ph31.i
  %indvars.iv.i = phi i64 [ %indvars.iv.next.i, %.lr.ph31.i ], [ 0, %.lr.ph.i ]
  %.02529.i = phi ptr [ %59, %.lr.ph31.i ], [ null, %.lr.ph.i ]
  %44 = load ptr, ptr %41, align 8
  %45 = getelementptr inbounds nuw %union.ListCell, ptr %44, i64 %indvars.iv.i
  %46 = load ptr, ptr %45, align 8
  %47 = tail call noundef ptr @palloc0(i64 noundef 32) #16
  store i32 392, ptr %47, align 4
  %48 = getelementptr inbounds nuw i8, ptr %46, i64 4
  %49 = load i32, ptr %48, align 4
  %50 = getelementptr inbounds nuw i8, ptr %47, i64 4
  store i32 %49, ptr %50, align 4
  %51 = getelementptr inbounds nuw i8, ptr %46, i64 8
  %52 = load ptr, ptr %51, align 8
  %53 = getelementptr inbounds nuw i8, ptr %47, i64 8
  store ptr %52, ptr %53, align 8
  %54 = getelementptr inbounds nuw i8, ptr %46, i64 16
  %55 = load ptr, ptr %54, align 8
  %56 = getelementptr inbounds nuw i8, ptr %47, i64 16
  store ptr %55, ptr %56, align 8
  %57 = tail call ptr @ExecInitExpr(ptr noundef %55, ptr noundef null) #16
  %58 = getelementptr inbounds nuw i8, ptr %47, i64 24
  store ptr %57, ptr %58, align 8
  %59 = tail call ptr @lappend(ptr noundef %.02529.i, ptr noundef nonnull %47) #16
  %indvars.iv.next.i = add nuw nsw i64 %indvars.iv.i, 1
  %60 = load i32, ptr %40, align 4
  %61 = sext i32 %60 to i64
  %62 = icmp slt i64 %indvars.iv.next.i, %61
  br i1 %62, label %.lr.ph31.i, label %prep_domain_constraints.exit

prep_domain_constraints.exit:                     ; preds = %.lr.ph31.i, %36, %.lr.ph.i
  %.0.lcssa.i = phi ptr [ null, %36 ], [ null, %.lr.ph.i ], [ %59, %.lr.ph31.i ]
  store ptr %39, ptr @CurrentMemoryContext, align 8
  br label %.sink.split

.sink.split:                                      ; preds = %28, %prep_domain_constraints.exit
  %.sink = phi ptr [ %.0.lcssa.i, %prep_domain_constraints.exit ], [ %35, %28 ]
  store ptr %.sink, ptr %0, align 8
  br label %63

63:                                               ; preds = %.sink.split, %decr_dcc_refcount.exit, %13
  ret void
}